target datalayout = "e-m:e-p270:32:32-p271:32:32-p272:64:64-i64:64-i128:128-f80:128-n8:16:32:64-S128"
target triple = "x86_64-pc-linux-gnu"

%struct.ItemPointerData = type { %struct.BlockIdData, i16 }
%struct.BlockIdData = type { i16, i16 }
%struct.ScanKeyData = type { i32, i16, i16, i32, i32, %struct.FmgrInfo, i64 }
%struct.FmgrInfo = type { ptr, i32, i16, i8, i8, i8, ptr, ptr, ptr }
%struct.FormData_pg_depend = type { i32, i32, i32, i32, i32, i32, i8 }
%struct.HeapTupleData = type { i32, %struct.ItemPointerData, i32, ptr }
%struct.HeapTupleHeaderData = type { %union.anon, %struct.ItemPointerData, i16, i16, i8, [0 x i8] }
%union.anon = type { %struct.HeapTupleFields }
%struct.HeapTupleFields = type { i32, i32, %union.anon.0 }
%union.anon.0 = type { i32 }

; Function Attrs: inlinehint nounwind uwtable
define internal ptr @GETSTRUCT(ptr noundef %0) #3 {
  %2 = alloca ptr, align 8
  store ptr %0, ptr %2, align 8
  %3 = load ptr, ptr %2, align 8
  %4 = getelementptr inbounds nuw %struct.HeapTupleData, ptr %3, i32 0, i32 3
  %5 = load ptr, ptr %4, align 8
  %6 = load ptr, ptr %2, align 8
  %7 = getelementptr inbounds nuw %struct.HeapTupleData, ptr %6, i32 0, i32 3
  %8 = load ptr, ptr %7, align 8
  %9 = getelementptr inbounds nuw %struct.HeapTupleHeaderData, ptr %8, i32 0, i32 4
  %10 = load i8, ptr %9, align 2
  %11 = zext i8 %10 to i32
  %12 = sext i32 %11 to i64
  %13 = getelementptr inbounds i8, ptr %5, i64 %12
  ret ptr %13
}

; Function Attrs: inlinehint nounwind uwtable
define internal i64 @ObjectIdGetDatum(i32 noundef %0) #3 {
  %2 = alloca i32, align 4
  store i32 %0, ptr %2, align 4
  %3 = load i32, ptr %2, align 4
  %4 = zext i32 %3 to i64
  ret i64 %4
}

; Function Attrs: nounwind uwtable
define dso_local i64 @changeDependenciesOf(i32 noundef %0, i32 noundef %1, i32 noundef %2) #0 {
  %4 = alloca i32, align 4
  %5 = alloca i32, align 4
  %6 = alloca i32, align 4
  %7 = alloca i64, align 8
  %8 = alloca ptr, align 8
  %9 = alloca [2 x %struct.ScanKeyData], align 16
  %10 = alloca ptr, align 8
  %11 = alloca ptr, align 8
  %12 = alloca ptr, align 8
  store i32 %0, ptr %4, align 4
  store i32 %1, ptr %5, align 4
  store i32 %2, ptr %6, align 4
  call void @llvm.lifetime.start.p0(i64 8, ptr %7) #6
  store i64 0, ptr %7, align 8
  call void @llvm.lifetime.start.p0(i64 8, ptr %8) #6
  call void @llvm.lifetime.start.p0(i64 144, ptr %9) #6
  call void @llvm.lifetime.start.p0(i64 8, ptr %10) #6
  call void @llvm.lifetime.start.p0(i64 8, ptr %11) #6
  %13 = call ptr @table_open(i32 noundef 2608, i32 noundef 3)
  store ptr %13, ptr %8, align 8
  %14 = getelementptr inbounds [2 x %struct.ScanKeyData], ptr %9, i64 0, i64 0
  %15 = load i32, ptr %4, align 4
  %16 = call i64 @ObjectIdGetDatum(i32 noundef %15)
  call void @ScanKeyInit(ptr noundef %14, i16 noundef signext 1, i16 noundef zeroext 3, i32 noundef 184, i64 noundef %16)
  %17 = getelementptr inbounds [2 x %struct.ScanKeyData], ptr %9, i64 0, i64 1
  %18 = load i32, ptr %5, align 4
  %19 = call i64 @ObjectIdGetDatum(i32 noundef %18)
  call void @ScanKeyInit(ptr noundef %17, i16 noundef signext 2, i16 noundef zeroext 3, i32 noundef 184, i64 noundef %19)
  %20 = load ptr, ptr %8, align 8
  %21 = getelementptr inbounds [2 x %struct.ScanKeyData], ptr %9, i64 0, i64 0
  %22 = call ptr @systable_beginscan(ptr noundef %20, i32 noundef 2673, i1 noundef zeroext true, ptr noundef null, i32 noundef 2, ptr noundef %21)
  store ptr %22, ptr %10, align 8
  br label %23

23:                                               ; preds = %27, %3
  %24 = load ptr, ptr %10, align 8
  %25 = call ptr @systable_getnext(ptr noundef %24)
  store ptr %25, ptr %11, align 8
  %26 = icmp ne ptr %25, null
  br i1 %26, label %27, label %42

27:                                               ; preds = %23
  call void @llvm.lifetime.start.p0(i64 8, ptr %12) #6
  %28 = load ptr, ptr %11, align 8
  %29 = call ptr @heap_copytuple(ptr noundef %28)
  store ptr %29, ptr %11, align 8
  %30 = load ptr, ptr %11, align 8
  %31 = call ptr @GETSTRUCT(ptr noundef %30)
  store ptr %31, ptr %12, align 8
  %32 = load i32, ptr %6, align 4
  %33 = load ptr, ptr %12, align 8
  %34 = getelementptr inbounds nuw %struct.FormData_pg_depend, ptr %33, i32 0, i32 1
  store i32 %32, ptr %34, align 4
  %35 = load ptr, ptr %8, align 8
  %36 = load ptr, ptr %11, align 8
  %37 = getelementptr inbounds nuw %struct.HeapTupleData, ptr %36, i32 0, i32 1
  %38 = load ptr, ptr %11, align 8
  call void @CatalogTupleUpdate(ptr noundef %35, ptr noundef %37, ptr noundef %38)
  %39 = load ptr, ptr %11, align 8
  call void @heap_freetuple(ptr noundef %39)
  %40 = load i64, ptr %7, align 8
  %41 = add i64 %40, 1
  store i64 %41, ptr %7, align 8
  call void @llvm.lifetime.end.p0(i64 8, ptr %12) #6
  br label %23, !llvm.loop !14

42:                                               ; preds = %23
  %43 = load ptr, ptr %10, align 8
  call void @systable_endscan(ptr noundef %43)
  %44 = load ptr, ptr %8, align 8
  call void @table_close(ptr noundef %44, i32 noundef 3)
  %45 = load i64, ptr %7, align 8
  call void @llvm.lifetime.end.p0(i64 8, ptr %11) #6
  call void @llvm.lifetime.end.p0(i64 8, ptr %10) #6
  call void @llvm.lifetime.end.p0(i64 144, ptr %9) #6
  call void @llvm.lifetime.end.p0(i64 8, ptr %8) #6
  call void @llvm.lifetime.end.p0(i64 8, ptr %7) #6
  ret i64 %45
}