; Function Attrs: nounwind uwtable
define dso_local i64 @changeDependenciesOf(i32 noundef %0, i32 noundef %1, i32 noundef %2) local_unnamed_addr #0 {
  %4 = alloca [2 x %struct.ScanKeyData], align 16
  call void @llvm.lifetime.start.p0(i64 144, ptr nonnull %4) #7
  %5 = tail call ptr @table_open(i32 noundef 2608, i32 noundef 3) #7
  %6 = zext i32 %0 to i64
  call void @ScanKeyInit(ptr noundef nonnull %4, i16 noundef signext 1, i16 noundef zeroext 3, i32 noundef 184, i64 noundef %6) #7
  %7 = getelementptr inbounds nuw i8, ptr %4, i64 72
  %8 = zext i32 %1 to i64
  call void @ScanKeyInit(ptr noundef nonnull %7, i16 noundef signext 2, i16 noundef zeroext 3, i32 noundef 184, i64 noundef %8) #7
  %9 = call ptr @systable_beginscan(ptr noundef %5, i32 noundef 2673, i1 noundef zeroext true, ptr noundef null, i32 noundef 2, ptr noundef nonnull %4) #7
  %10 = call ptr @systable_getnext(ptr noundef %9) #7
  %.not16 = icmp eq ptr %10, null
  br i1 %.not16, label %._crit_edge, label %.lr.ph

.lr.ph:                                           ; preds = %3, %.lr.ph
  %11 = phi ptr [ %21, %.lr.ph ], [ %10, %3 ]
  %.017 = phi i64 [ %20, %.lr.ph ], [ 0, %3 ]
  %12 = call ptr @heap_copytuple(ptr noundef nonnull %11) #7
  %13 = getelementptr i8, ptr %12, i64 16
  %.val = load ptr, ptr %13, align 8
  %14 = getelementptr inbounds nuw i8, ptr %.val, i64 22
  %15 = load i8, ptr %14, align 2
  %16 = zext i8 %15 to i64
  %17 = getelementptr inbounds nuw i8, ptr %.val, i64 %16
  %18 = getelementptr inbounds nuw i8, ptr %17, i64 4
  store i32 %2, ptr %18, align 4
  %19 = getelementptr inbounds nuw i8, ptr %12, i64 4
  call void @CatalogTupleUpdate(ptr noundef %5, ptr noundef nonnull %19, ptr noundef %12) #7
  call void @heap_freetuple(ptr noundef %12) #7
  %20 = add i64 %.017, 1
  %21 = call ptr @systable_getnext(ptr noundef %9) #7
  %.not = icmp eq ptr %21, null
  br i1 %.not, label %._crit_edge, label %.lr.ph, !llvm.loop !13

._crit_edge:                                      ; preds = %.lr.ph, %3
  %.0.lcssa = phi i64 [ 0, %3 ], [ %20, %.lr.ph ]
  call void @systable_endscan(ptr noundef %9) #7
  call void @table_close(ptr noundef %5, i32 noundef 3) #7
  call void @llvm.lifetime.end.p0(i64 144, ptr nonnull %4) #7
  ret i64 %.0.lcssa
}